target datalayout = "e-m:e-p270:32:32-p271:32:32-p272:64:64-i64:64-i128:128-f80:128-n8:16:32:64-S128"
target triple = "x86_64-pc-linux-gnu"

%class.symbol = type { ptr }
%class.ptr_vector = type { %class.vector }
%class.vector = type { ptr }
%class.obj_ref = type { ptr, ptr }
%"class.datalog::tr_infrastructure<datalog::relation_traits>::plugin_object" = type { ptr, i32, %class.symbol, ptr }
%class.params_ref = type { ptr }
%"class.datalog::check_relation_plugin" = type { %"class.datalog::relation_plugin.base", ptr, ptr }
%"class.datalog::relation_plugin.base" = type <{ %"class.datalog::tr_infrastructure<datalog::relation_traits>::plugin_object", i32 }>
%class.ref_vector = type { %class.ref_vector_core }
%class.ref_vector_core = type { %class.ref_manager_wrapper, %class.ptr_vector.28 }
%class.ref_manager_wrapper = type { ptr }
%class.ptr_vector.28 = type { %class.vector.29 }
%class.vector.29 = type { ptr }
%class.var_subst = type { %class.beta_reducer, i8, [7 x i8] }
%class.beta_reducer = type <{ %class.rewriter_tpl, [8 x i8] }>
%class.rewriter_tpl = type { %class.rewriter_core, ptr, i32, %class.ptr_vector.28, %class.var_shifter, %class.inv_var_shifter, %class.obj_ref, %class.obj_ref.44, %class.obj_ref.44, %class.svector.19 }
%class.rewriter_core = type { ptr, ptr, i8, i8, %class.ptr_vector.35, ptr, %class.svector.37, %class.ref_vector, %class.ptr_vector.35, ptr, %class.ref_vector.30, %class.obj_hashtable, ptr, i32, %class.svector.42 }
%class.svector.37 = type { %class.vector.38 }
%class.vector.38 = type { ptr }
%class.ptr_vector.35 = type { %class.vector.36 }
%class.vector.36 = type { ptr }
%class.ref_vector.30 = type { %class.ref_vector_core.31 }
%class.ref_vector_core.31 = type { %class.ref_manager_wrapper.32, %class.ptr_vector.33 }
%class.ref_manager_wrapper.32 = type { ptr }
%class.ptr_vector.33 = type { %class.vector.34 }
%class.vector.34 = type { ptr }
%class.obj_hashtable = type { %class.core_hashtable.base.41, [4 x i8] }
%class.core_hashtable.base.41 = type <{ ptr, i32, i32, i32 }>
%class.svector.42 = type { %class.vector.43 }
%class.vector.43 = type { ptr }
%class.var_shifter = type <{ %class.var_shifter_core, i32, i32, i32, [4 x i8] }>
%class.var_shifter_core = type { %class.rewriter_core }
%class.inv_var_shifter = type <{ %class.var_shifter_core, i32, [4 x i8] }>
%class.obj_ref.44 = type { ptr, ptr }
%class.svector.19 = type { %class.vector.20 }
%class.vector.20 = type { ptr }
%class.svector.6 = type { %class.vector.7 }
%class.vector.7 = type { ptr }
%class.obj_map.23 = type { %class.core_hashtable.24 }
%class.core_hashtable.24 = type <{ ptr, i32, i32, i32, [4 x i8] }>
%"class.datalog::relation_plugin" = type <{ %"class.datalog::tr_infrastructure<datalog::relation_traits>::plugin_object", i32, [4 x i8] }>
%"class.datalog::relation_manager" = type { ptr, ptr, %class.ptr_vector.45, %class.ptr_vector.47, %class.map.49, %class.map.54, %class.u_map.60, ptr, ptr, %class.obj_map.65, %class.obj_hashtable.70, i32, i32, %class.obj_map.76 }
%class.ptr_vector.45 = type { %class.vector.46 }
%class.vector.46 = type { ptr }
%class.ptr_vector.47 = type { %class.vector.48 }
%class.vector.48 = type { ptr }
%class.map.49 = type { %class.table2map.50 }
%class.table2map.50 = type { %class.core_hashtable.51 }
%class.core_hashtable.51 = type <{ ptr, i32, i32, i32, [4 x i8] }>
%class.map.54 = type { %class.table2map.55 }
%class.table2map.55 = type { %class.core_hashtable.56 }
%class.core_hashtable.56 = type <{ ptr, i32, i32, i32, [4 x i8] }>
%class.u_map.60 = type { %class.map.61 }
%class.map.61 = type { %class.table2map.62 }
%class.table2map.62 = type { %class.core_hashtable.63 }
%class.core_hashtable.63 = type <{ ptr, i32, i32, i32, [4 x i8] }>
%class.obj_map.65 = type { %class.core_hashtable.66 }
%class.core_hashtable.66 = type <{ ptr, i32, i32, i32, [4 x i8] }>
%class.obj_hashtable.70 = type { %class.core_hashtable.base.74, [4 x i8] }
%class.core_hashtable.base.74 = type <{ ptr, i32, i32, i32 }>
%class.obj_map.76 = type { %class.core_hashtable.77 }
%class.core_hashtable.77 = type <{ ptr, i32, i32, i32, [4 x i8] }>
%"class.datalog::context" = type <{ ptr, ptr, ptr, %class.params_ref, ptr, i8, i8, [6 x i8], %class.symbol, %"class.datalog::dl_decl_util", %class.th_rewriter, %class.var_subst, %"class.datalog::rule_manager", %"class.datalog::context::contains_pred", %"class.datalog::rule_properties", %"class.datalog::rule_transformer", %class.trail_stack, %class.ref_vector.112, %class.bind_variables, %class.obj_map.127, %class.obj_hashtable.70, %class.map.132, %class.obj_map.136, %"class.datalog::rule_set", %"class.datalog::rule_set", %class.expr_free_vars, i32, [4 x i8], %class.ref_vector, %class.svector.6, %class.vector.160, %class.ref_vector, %class.ref, %class.ref.161, ptr, %class.scoped_ptr.162, i8, i8, i8, i8, i32, %class.obj_ref, %class.obj_ref, i32, [4 x i8] }>
%"class.datalog::dl_decl_util" = type <{ ptr, %class.scoped_ptr, %class.scoped_ptr.81, i32, [4 x i8] }>
%class.scoped_ptr = type { ptr }
%class.scoped_ptr.81 = type { ptr }
%class.th_rewriter = type { ptr, %class.params_ref }
%"class.datalog::rule_manager" = type { ptr, ptr, %"class.datalog::rule_counter", %class.used_vars, %class.uint_set, %class.expr_free_vars, %class.ref_vector.30, %class.obj_ref.44, %class.ref_vector, %class.svector.93, %class.hnf, %class.qe_lite, %class.label_rewriter, %"struct.datalog::uninterpreted_function_finder_proc", %"struct.datalog::quantifier_finder_proc", [5 x i8], %class.expr_sparse_mark, %"struct.datalog::fd_finder_proc" }
%"class.datalog::rule_counter" = type { %class.var_counter }
%class.var_counter = type { %class.counter, %class.ast_fast_mark, %class.expr_free_vars, %class.ptr_vector.28, %class.svector.19 }
%class.counter = type { %class.u_map.82 }
%class.u_map.82 = type { %class.map.83 }
%class.map.83 = type { %class.table2map.84 }
%class.table2map.84 = type { %class.core_hashtable.85 }
%class.core_hashtable.85 = type <{ ptr, i32, i32, i32, [4 x i8] }>
%class.ast_fast_mark = type { %class.ptr_buffer }
%class.ptr_buffer = type { %class.buffer }
%class.buffer = type { ptr, i32, i32, [128 x i8] }
%class.used_vars = type { %class.ptr_vector, %class.hashtable, %class.svector.91, i32, i32 }
%class.hashtable = type { %class.core_hashtable.base.90, [4 x i8] }
%class.core_hashtable.base.90 = type <{ ptr, i32, i32, i32 }>
%class.svector.91 = type { %class.vector.92 }
%class.vector.92 = type { ptr }
%class.uint_set = type { %class.svector.19 }
%class.svector.93 = type { %class.vector.94 }
%class.vector.94 = type { ptr }
%class.hnf = type { ptr }
%class.qe_lite = type { ptr }
%class.label_rewriter = type { i32, %class.rewriter_tpl.95 }
%class.rewriter_tpl.95 = type { %class.rewriter_core, ptr, i32, %class.ptr_vector.28, %class.var_shifter, %class.inv_var_shifter, %class.obj_ref, %class.obj_ref.44, %class.obj_ref.44, %class.svector.19 }
%"struct.datalog::uninterpreted_function_finder_proc" = type { ptr, %"class.datatype::util", %"class.datalog::dl_decl_util", i8, ptr }
%"class.datatype::util" = type { ptr, i32, ptr }
%"struct.datalog::quantifier_finder_proc" = type { i8, i8, i8 }
%class.expr_sparse_mark = type { %class.obj_hashtable }
%"struct.datalog::fd_finder_proc" = type <{ ptr, %class.bv_util, i8, [7 x i8] }>
%class.bv_util = type { %class.bv_recognizers, ptr, ptr }
%class.bv_recognizers = type { i32 }
%"class.datalog::context::contains_pred" = type { %class.i_expr_pred, ptr }
%class.i_expr_pred = type { ptr }
%"class.datalog::rule_properties" = type <{ ptr, ptr, ptr, ptr, %"class.datatype::util", %"class.datalog::dl_decl_util", %class.arith_util, %class.bv_util, %class.array_util, %"class.recfun::util", i8, [7 x i8], ptr, %class.obj_map.96, %class.obj_map.101, %class.ptr_vector.106, %class.ptr_vector.106, %class.ptr_vector.106, i8, i8, [6 x i8] }>
%class.arith_util = type { ptr, ptr }
%class.array_util = type { %class.array_recognizers, ptr }
%class.array_recognizers = type { i32 }
%"class.recfun::util" = type { ptr, i32, ptr }
%class.obj_map.96 = type { %class.core_hashtable.97 }
%class.core_hashtable.97 = type <{ ptr, i32, i32, i32, [4 x i8] }>
%class.obj_map.101 = type { %class.core_hashtable.102 }
%class.core_hashtable.102 = type <{ ptr, i32, i32, i32, [4 x i8] }>
%class.ptr_vector.106 = type { %class.vector.107 }
%class.vector.107 = type { ptr }
%"class.datalog::rule_transformer" = type { ptr, ptr, i8, %class.svector.108 }
%class.svector.108 = type { %class.vector.109 }
%class.vector.109 = type { ptr }
%class.trail_stack = type { %class.ptr_vector.110, %class.svector.19, %class.region }
%class.ptr_vector.110 = type { %class.vector.111 }
%class.vector.111 = type { ptr }
%class.region = type { ptr, ptr, ptr, ptr, ptr }
%class.ref_vector.112 = type { %class.ref_vector_core.113 }
%class.ref_vector_core.113 = type { %class.ref_manager_wrapper.114, %class.ptr_vector.115 }
%class.ref_manager_wrapper.114 = type { ptr }
%class.ptr_vector.115 = type { %class.vector.116 }
%class.vector.116 = type { ptr }
%class.bind_variables = type { ptr, %class.ref_vector.30, %class.obj_map.117, %class.obj_map.122, %class.ref_vector, %class.ptr_vector, %class.svector.6, %class.ptr_vector.28, %class.ptr_vector.28 }
%class.obj_map.117 = type { %class.core_hashtable.118 }
%class.core_hashtable.118 = type <{ ptr, i32, i32, i32, [4 x i8] }>
%class.obj_map.122 = type { %class.core_hashtable.123 }
%class.core_hashtable.123 = type <{ ptr, i32, i32, i32, [4 x i8] }>
%class.obj_map.127 = type { %class.core_hashtable.128 }
%class.core_hashtable.128 = type <{ ptr, i32, i32, i32, [4 x i8] }>
%class.map.132 = type { %class.table2map.133 }
%class.table2map.133 = type { %class.core_hashtable.134 }
%class.core_hashtable.134 = type <{ ptr, i32, i32, i32, [4 x i8] }>
%class.obj_map.136 = type { %class.core_hashtable.137 }
%class.core_hashtable.137 = type <{ ptr, i32, i32, i32, [4 x i8] }>
%"class.datalog::rule_set" = type { ptr, ptr, %class.ref_vector.141, %class.obj_map.144, %"class.datalog::rule_dependencies", %class.scoped_ptr.154, %class.obj_hashtable.70, %class.obj_map.23, %class.obj_map.23, %class.ref_vector.155, %class.ptr_vector.106 }
%class.ref_vector.141 = type { %class.ref_vector_core.142 }
%class.ref_vector_core.142 = type { %class.ref_manager_wrapper.143, %class.ptr_vector.106 }
%class.ref_manager_wrapper.143 = type { ptr }
%class.obj_map.144 = type { %class.core_hashtable.145 }
%class.core_hashtable.145 = type <{ ptr, i32, i32, i32, [4 x i8] }>
%"class.datalog::rule_dependencies" = type { %class.obj_map.149, ptr, %class.ptr_vector.28, %class.expr_sparse_mark, %class.obj_hashtable.70 }
%class.obj_map.149 = type { %class.core_hashtable.150 }
%class.core_hashtable.150 = type <{ ptr, i32, i32, i32, [4 x i8] }>
%class.scoped_ptr.154 = type { ptr }
%class.ref_vector.155 = type { %class.ref_vector_core.156 }
%class.ref_vector_core.156 = type { %class.ref_manager_wrapper.157, %class.ptr_vector.158 }
%class.ref_manager_wrapper.157 = type { ptr }
%class.ptr_vector.158 = type { %class.vector.159 }
%class.vector.159 = type { ptr }
%class.expr_free_vars = type { %class.expr_sparse_mark, %class.ptr_vector, %class.ptr_vector.28 }
%class.vector.160 = type { ptr }
%class.ref = type { ptr }
%class.ref.161 = type { ptr }
%class.scoped_ptr.162 = type { ptr }

@.str.25 = private unnamed_addr constant [15 x i8] c"check_relation\00", align 1

; Function Attrs: mustprogress nounwind uwtable
define linkonce_odr hidden void @_ZN7datalog17tr_infrastructureINS_15relation_traitsEE13plugin_objectC2ERK6symbolRNS_16relation_managerE(ptr noundef nonnull align 8 dereferenceable(32) %0, ptr noundef nonnull align 8 dereferenceable(8) %1, ptr noundef nonnull align 8 dereferenceable(200) %2) unnamed_addr #5 comdat align 2 {
  %4 = alloca ptr, align 8
  %5 = alloca ptr, align 8
  %6 = alloca ptr, align 8
  store ptr %0, ptr %4, align 8, !tbaa !34
  store ptr %1, ptr %5, align 8, !tbaa !117
  store ptr %2, ptr %6, align 8, !tbaa !181
  %7 = load ptr, ptr %4, align 8
  store ptr getelementptr inbounds inrange(-16, 200) ({ [27 x ptr] }, ptr @_ZTVN7datalog17tr_infrastructureINS_15relation_traitsEE13plugin_objectE, i32 0, i32 0, i32 2), ptr %7, align 8, !tbaa !14
  %8 = getelementptr inbounds nuw %"class.datalog::tr_infrastructure<datalog::relation_traits>::plugin_object", ptr %7, i32 0, i32 1
  store i32 -1, ptr %8, align 8, !tbaa !561
  %9 = getelementptr inbounds nuw %"class.datalog::tr_infrastructure<datalog::relation_traits>::plugin_object", ptr %7, i32 0, i32 2
  %10 = load ptr, ptr %5, align 8, !tbaa !117
  call void @llvm.memcpy.p0.p0.i64(ptr align 8 %9, ptr align 8 %10, i64 8, i1 false), !tbaa.struct !380
  %11 = getelementptr inbounds nuw %"class.datalog::tr_infrastructure<datalog::relation_traits>::plugin_object", ptr %7, i32 0, i32 3
  %12 = load ptr, ptr %6, align 8, !tbaa !181
  store ptr %12, ptr %11, align 8, !tbaa !181
  ret void
}

; Function Attrs: mustprogress nounwind uwtable
define linkonce_odr hidden void @_ZN7datalog17tr_infrastructureINS_15relation_traitsEE13plugin_objectD2Ev(ptr noundef nonnull align 8 dereferenceable(32) %0) unnamed_addr #5 comdat align 2 {
  %2 = alloca ptr, align 8
  store ptr %0, ptr %2, align 8, !tbaa !34
  ret void
}

; Function Attrs: mustprogress nounwind uwtable
define linkonce_odr hidden noundef nonnull align 8 dereferenceable(976) ptr @_ZNK7datalog7context11get_managerEv(ptr noundef nonnull align 8 dereferenceable(3028) %0) #5 comdat align 2 {
  %2 = alloca ptr, align 8
  store ptr %0, ptr %2, align 8, !tbaa !217
  %3 = load ptr, ptr %2, align 8
  %4 = getelementptr inbounds nuw %"class.datalog::context", ptr %3, i32 0, i32 0
  %5 = load ptr, ptr %4, align 8, !tbaa !218
  ret ptr %5
}

; Function Attrs: mustprogress nounwind uwtable
define linkonce_odr hidden noundef nonnull align 8 dereferenceable(3028) ptr @_ZNK7datalog16relation_manager11get_contextEv(ptr noundef nonnull align 8 dereferenceable(200) %0) #5 comdat align 2 {
  %2 = alloca ptr, align 8
  store ptr %0, ptr %2, align 8, !tbaa !181
  %3 = load ptr, ptr %2, align 8
  %4 = getelementptr inbounds nuw %"class.datalog::relation_manager", ptr %3, i32 0, i32 1
  %5 = load ptr, ptr %4, align 8, !tbaa !185
  ret ptr %5
}

; Function Attrs: mustprogress uwtable
define linkonce_odr hidden void @_ZN7datalog15relation_pluginC2ERK6symbolRNS_16relation_managerENS0_21special_relation_typeE(ptr noundef nonnull align 8 dereferenceable(36) %0, ptr noundef nonnull align 8 dereferenceable(8) %1, ptr noundef nonnull align 8 dereferenceable(200) %2, i32 noundef %3) unnamed_addr #4 comdat align 2 {
  %5 = alloca ptr, align 8
  %6 = alloca ptr, align 8
  %7 = alloca ptr, align 8
  %8 = alloca i32, align 4
  store ptr %0, ptr %5, align 8, !tbaa !33
  store ptr %1, ptr %6, align 8, !tbaa !117
  store ptr %2, ptr %7, align 8, !tbaa !181
  store i32 %3, ptr %8, align 4, !tbaa !183
  %9 = load ptr, ptr %5, align 8
  %10 = load ptr, ptr %6, align 8, !tbaa !117
  %11 = load ptr, ptr %7, align 8, !tbaa !181
  call void @_ZN7datalog17tr_infrastructureINS_15relation_traitsEE13plugin_objectC2ERK6symbolRNS_16relation_managerE(ptr noundef nonnull align 8 dereferenceable(32) %9, ptr noundef nonnull align 8 dereferenceable(8) %10, ptr noundef nonnull align 8 dereferenceable(200) %11)
  store ptr getelementptr inbounds inrange(-16, 208) ({ [28 x ptr] }, ptr @_ZTVN7datalog15relation_pluginE, i32 0, i32 0, i32 2), ptr %9, align 8, !tbaa !14
  %12 = getelementptr inbounds nuw %"class.datalog::relation_plugin", ptr %9, i32 0, i32 1
  %13 = load i32, ptr %8, align 4, !tbaa !183
  store i32 %13, ptr %12, align 8, !tbaa !184
  ret void
}

; Function Attrs: mustprogress uwtable
define linkonce_odr hidden ptr @_ZN7datalog21check_relation_plugin8get_nameEv() #4 comdat align 2 {
  %1 = alloca %class.symbol, align 8
  call void @_ZN6symbolC1EPKc(ptr noundef nonnull align 8 dereferenceable(8) %1, ptr noundef @.str.25)
  %2 = getelementptr inbounds nuw %class.symbol, ptr %1, i32 0, i32 0
  %3 = load ptr, ptr %2, align 8
  ret ptr %3
}

; Function Attrs: mustprogress uwtable
define hidden void @_ZN7datalog21check_relation_pluginC2ERNS_16relation_managerE(ptr noundef nonnull align 8 dereferenceable(56) %0, ptr noundef nonnull align 8 dereferenceable(200) %1) unnamed_addr #4 align 2 personality ptr @__gxx_personality_v0 {
  %3 = alloca ptr, align 8
  %4 = alloca ptr, align 8
  %5 = alloca %class.symbol, align 8
  %6 = alloca ptr, align 8
  %7 = alloca i32, align 4
  store ptr %0, ptr %3, align 8, !tbaa !8
  store ptr %1, ptr %4, align 8, !tbaa !181
  %8 = load ptr, ptr %3, align 8
  call void @llvm.lifetime.start.p0(i64 8, ptr %5) #3
  %9 = call ptr @_ZN7datalog21check_relation_plugin8get_nameEv()
  %10 = getelementptr inbounds nuw %class.symbol, ptr %5, i32 0, i32 0
  store ptr %9, ptr %10, align 8
  %11 = load ptr, ptr %4, align 8, !tbaa !181
  call void @_ZN7datalog15relation_pluginC2ERK6symbolRNS_16relation_managerENS0_21special_relation_typeE(ptr noundef nonnull align 8 dereferenceable(36) %8, ptr noundef nonnull align 8 dereferenceable(8) %5, ptr noundef nonnull align 8 dereferenceable(200) %11, i32 noundef 0)
  call void @llvm.lifetime.end.p0(i64 8, ptr %5) #3
  store ptr getelementptr inbounds inrange(-16, 208) ({ [28 x ptr] }, ptr @_ZTVN7datalog21check_relation_pluginE, i32 0, i32 0, i32 2), ptr %8, align 8, !tbaa !14
  %12 = getelementptr inbounds nuw %"class.datalog::check_relation_plugin", ptr %8, i32 0, i32 1
  %13 = load ptr, ptr %4, align 8, !tbaa !181
  %14 = invoke noundef nonnull align 8 dereferenceable(3028) ptr @_ZNK7datalog16relation_manager11get_contextEv(ptr noundef nonnull align 8 dereferenceable(200) %13)
          to label %15 unwind label %19

15:                                               ; preds = %2
  %16 = invoke noundef nonnull align 8 dereferenceable(976) ptr @_ZNK7datalog7context11get_managerEv(ptr noundef nonnull align 8 dereferenceable(3028) %14)
          to label %17 unwind label %19

17:                                               ; preds = %15
  store ptr %16, ptr %12, align 8, !tbaa !16
  %18 = getelementptr inbounds nuw %"class.datalog::check_relation_plugin", ptr %8, i32 0, i32 2
  store ptr null, ptr %18, align 8, !tbaa !182
  ret void

19:                                               ; preds = %15, %2
  %20 = landingpad { ptr, i32 }
          cleanup
  %21 = extractvalue { ptr, i32 } %20, 0
  store ptr %21, ptr %6, align 8
  %22 = extractvalue { ptr, i32 } %20, 1
  store i32 %22, ptr %7, align 4
  call void @_ZN7datalog17tr_infrastructureINS_15relation_traitsEE13plugin_objectD2Ev(ptr noundef nonnull align 8 dereferenceable(36) %8) #3
  br label %23

23:                                               ; preds = %19
  %24 = load ptr, ptr %6, align 8
  %25 = load i32, ptr %7, align 4
  %26 = insertvalue { ptr, i32 } poison, ptr %24, 0
  %27 = insertvalue { ptr, i32 } %26, i32 %25, 1
  resume { ptr, i32 } %27
}