; Function Attrs: mustprogress uwtable
define hidden void @_ZN7datalog21check_relation_pluginC2ERNS_16relation_managerE(ptr noundef nonnull writeonly align 8 captures(none) dereferenceable(56) initializes((0, 12), (16, 36), (40, 56)) %0, ptr noundef nonnull align 8 dereferenceable(200) %1) unnamed_addr #3 align 2 personality ptr @__gxx_personality_v0 {
  %3 = alloca %class.symbol, align 8
  call void @llvm.lifetime.start.p0(i64 8, ptr nonnull %3)
  call void @_ZN6symbolC1EPKc(ptr noundef nonnull align 8 dereferenceable(8) %3, ptr noundef nonnull @.str.25)
  %4 = load ptr, ptr %3, align 8
  call void @llvm.lifetime.end.p0(i64 8, ptr nonnull %3)
  %5 = getelementptr inbounds nuw i8, ptr %0, i64 8
  store i32 -1, ptr %5, align 8, !tbaa !16
  %6 = getelementptr inbounds nuw i8, ptr %0, i64 16
  %7 = ptrtoint ptr %4 to i64
  store i64 %7, ptr %6, align 8, !tbaa !213
  %8 = getelementptr inbounds nuw i8, ptr %0, i64 24
  store ptr %1, ptr %8, align 8, !tbaa !214
  %9 = getelementptr inbounds nuw i8, ptr %0, i64 32
  store i32 0, ptr %9, align 8, !tbaa !215
  store ptr getelementptr inbounds nuw inrange(-16, 208) (i8, ptr @_ZTVN7datalog21check_relation_pluginE, i64 16), ptr %0, align 8, !tbaa !3
  %10 = getelementptr inbounds nuw i8, ptr %0, i64 40
  %11 = getelementptr inbounds nuw i8, ptr %1, i64 8
  %12 = load ptr, ptr %11, align 8, !tbaa !216
  %13 = load ptr, ptr %12, align 8, !tbaa !248
  store ptr %13, ptr %10, align 8, !tbaa !27
  %14 = getelementptr inbounds nuw i8, ptr %0, i64 48
  store ptr null, ptr %14, align 8, !tbaa !384
  ret void
}